; ModuleID = '23/312.cpp'
source_filename = "23/312.cpp"
target datalayout = "e-m:e-p270:32:32-p271:32:32-p272:64:64-i64:64-f80:128-n8:16:32:64-S128"
target triple = "x86_64-pc-linux-gnu"

%"class.std::ios_base::Init" = type { i8 }
%"class.std::basic_istream" = type { i32 (...)**, i64, %"class.std::basic_ios" }
%"class.std::basic_ios" = type { %"class.std::ios_base", %"class.std::basic_ostream"*, i8, i8, %"class.std::basic_streambuf"*, %"class.std::ctype"*, %"class.std::num_put"*, %"class.std::num_get"* }
%"class.std::ios_base" = type { i32 (...)**, i64, i64, i32, i32, i32, %"struct.std::ios_base::_Callback_list"*, %"struct.std::ios_base::_Words", [8 x %"struct.std::ios_base::_Words"], i32, %"struct.std::ios_base::_Words"*, %"class.std::locale" }
%"struct.std::ios_base::_Callback_list" = type { %"struct.std::ios_base::_Callback_list"*, void (i32, %"class.std::ios_base"*, i32)*, i32, i32 }
%"struct.std::ios_base::_Words" = type { i8*, i64 }
%"class.std::locale" = type { %"class.std::locale::_Impl"* }
%"class.std::locale::_Impl" = type { i32, %"class.std::locale::facet"**, i64, %"class.std::locale::facet"**, i8** }
%"class.std::locale::facet" = type <{ i32 (...)**, i32, [4 x i8] }>
%"class.std::basic_ostream" = type { i32 (...)**, %"class.std::basic_ios" }
%"class.std::basic_streambuf" = type { i32 (...)**, i8*, i8*, i8*, i8*, i8*, i8*, %"class.std::locale" }
%"class.std::ctype" = type <{ %"class.std::locale::facet.base", [4 x i8], %struct.__locale_struct*, i8, [7 x i8], i32*, i32*, i16*, i8, [256 x i8], [256 x i8], i8, [6 x i8] }>
%"class.std::locale::facet.base" = type <{ i32 (...)**, i32 }>
%struct.__locale_struct = type { [13 x %struct.__locale_data*], i16*, i32*, i32*, [13 x i8*] }
%struct.__locale_data = type opaque
%"class.std::num_put" = type { %"class.std::locale::facet.base", [4 x i8] }
%"class.std::num_get" = type { %"class.std::locale::facet.base", [4 x i8] }

@_ZStL8__ioinit = internal global %"class.std::ios_base::Init" zeroinitializer, align 1
@__dso_handle = external hidden global i8
@_ZSt3cin = external dso_local global %"class.std::basic_istream", align 8
@_ZSt4cout = external dso_local global %"class.std::basic_ostream", align 8
@.str = private unnamed_addr constant [2 x i8] c" \00", align 1
@llvm.global_ctors = appending global [1 x { i32, void ()*, i8* }] [{ i32, void ()*, i8* } { i32 65535, void ()* @_GLOBAL__sub_I_312.cpp, i8* null }]

; Function Attrs: noinline uwtable
define internal void @__cxx_global_var_init() #0 section ".text.startup" {
  call void @_ZNSt8ios_base4InitC1Ev(%"class.std::ios_base::Init"* @_ZStL8__ioinit)
  %1 = call i32 @__cxa_atexit(void (i8*)* bitcast (void (%"class.std::ios_base::Init"*)* @_ZNSt8ios_base4InitD1Ev to void (i8*)*), i8* getelementptr inbounds (%"class.std::ios_base::Init", %"class.std::ios_base::Init"* @_ZStL8__ioinit, i32 0, i32 0), i8* @__dso_handle) #3
  ret void
}

declare dso_local void @_ZNSt8ios_base4InitC1Ev(%"class.std::ios_base::Init"*) unnamed_addr #1

; Function Attrs: nounwind
declare dso_local void @_ZNSt8ios_base4InitD1Ev(%"class.std::ios_base::Init"*) unnamed_addr #2

; Function Attrs: nounwind
declare dso_local i32 @__cxa_atexit(void (i8*)*, i8*, i8*) #3

; Function Attrs: noinline norecurse uwtable
define dso_local i32 @main() #4 {
  %1 = alloca i32, align 4
  %2 = alloca i32, align 4
  %3 = alloca i32, align 4
  %4 = alloca i32, align 4
  %5 = alloca i32, align 4
  %6 = alloca [20 x i32], align 16
  %7 = alloca [101 x i8], align 16
  store i32 0, i32* %1, align 4
  store i32 0, i32* %3, align 4
  %8 = getelementptr inbounds [101 x i8], [101 x i8]* %7, i64 0, i64 0
  %9 = call dereferenceable(280) %"class.std::basic_istream"* @_ZNSi3getEPclc(%"class.std::basic_istream"* @_ZSt3cin, i8* %8, i64 101, i8 signext 10)
  store i32 0, i32* %2, align 4
  br label %10

10:                                               ; preds = %36, %0
  %11 = load i32, i32* %2, align 4
  %12 = icmp slt i32 %11, 101
  br i1 %12, label %13, label %39

13:                                               ; preds = %10
  %14 = load i32, i32* %2, align 4
  %15 = sext i32 %14 to i64
  %16 = getelementptr inbounds [101 x i8], [101 x i8]* %7, i64 0, i64 %15
  %17 = load i8, i8* %16, align 1
  %18 = sext i8 %17 to i32
  %19 = icmp eq i32 %18, 32
  br i1 %19, label %20, label %27

20:                                               ; preds = %13
  %21 = load i32, i32* %2, align 4
  %22 = load i32, i32* %3, align 4
  %23 = sext i32 %22 to i64
  %24 = getelementptr inbounds [20 x i32], [20 x i32]* %6, i64 0, i64 %23
  store i32 %21, i32* %24, align 4
  %25 = load i32, i32* %3, align 4
  %26 = add nsw i32 %25, 1
  store i32 %26, i32* %3, align 4
  br label %27

27:                                               ; preds = %20, %13
  %28 = load i32, i32* %2, align 4
  %29 = sext i32 %28 to i64
  %30 = getelementptr inbounds [101 x i8], [101 x i8]* %7, i64 0, i64 %29
  %31 = load i8, i8* %30, align 1
  %32 = sext i8 %31 to i32
  %33 = icmp eq i32 %32, 0
  br i1 %33, label %34, label %35

34:                                               ; preds = %27
  br label %39

35:                                               ; preds = %27
  br label %36

36:                                               ; preds = %35
  %37 = load i32, i32* %2, align 4
  %38 = add nsw i32 %37, 1
  store i32 %38, i32* %2, align 4
  br label %10

39:                                               ; preds = %34, %10
  %40 = load i32, i32* %2, align 4
  store i32 %40, i32* %5, align 4
  %41 = load i32, i32* %3, align 4
  store i32 %41, i32* %4, align 4
  %42 = load i32, i32* %4, align 4
  %43 = icmp ne i32 %42, 0
  br i1 %43, label %44, label %115

44:                                               ; preds = %39
  %45 = load i32, i32* %4, align 4
  %46 = sub nsw i32 %45, 1
  %47 = sext i32 %46 to i64
  %48 = getelementptr inbounds [20 x i32], [20 x i32]* %6, i64 0, i64 %47
  %49 = load i32, i32* %48, align 4
  %50 = add nsw i32 %49, 1
  store i32 %50, i32* %2, align 4
  br label %51

51:                                               ; preds = %61, %44
  %52 = load i32, i32* %2, align 4
  %53 = load i32, i32* %5, align 4
  %54 = icmp slt i32 %52, %53
  br i1 %54, label %55, label %64

55:                                               ; preds = %51
  %56 = load i32, i32* %2, align 4
  %57 = sext i32 %56 to i64
  %58 = getelementptr inbounds [101 x i8], [101 x i8]* %7, i64 0, i64 %57
  %59 = load i8, i8* %58, align 1
  %60 = call dereferenceable(272) %"class.std::basic_ostream"* @_ZStlsISt11char_traitsIcEERSt13basic_ostreamIcT_ES5_c(%"class.std::basic_ostream"* dereferenceable(272) @_ZSt4cout, i8 signext %59)
  br label %61

61:                                               ; preds = %55
  %62 = load i32, i32* %2, align 4
  %63 = add nsw i32 %62, 1
  store i32 %63, i32* %2, align 4
  br label %51

64:                                               ; preds = %51
  %65 = load i32, i32* %4, align 4
  %66 = sub nsw i32 %65, 2
  store i32 %66, i32* %3, align 4
  br label %67

67:                                               ; preds = %95, %64
  %68 = load i32, i32* %3, align 4
  %69 = icmp sge i32 %68, 0
  br i1 %69, label %70, label %98

70:                                               ; preds = %67
  %71 = call dereferenceable(272) %"class.std::basic_ostream"* @_ZStlsISt11char_traitsIcEERSt13basic_ostreamIcT_ES5_PKc(%"class.std::basic_ostream"* dereferenceable(272) @_ZSt4cout, i8* getelementptr inbounds ([2 x i8], [2 x i8]* @.str, i64 0, i64 0))
  %72 = load i32, i32* %3, align 4
  %73 = sext i32 %72 to i64
  %74 = getelementptr inbounds [20 x i32], [20 x i32]* %6, i64 0, i64 %73
  %75 = load i32, i32* %74, align 4
  %76 = add nsw i32 %75, 1
  store i32 %76, i32* %2, align 4
  br label %77

77:                                               ; preds = %91, %70
  %78 = load i32, i32* %2, align 4
  %79 = load i32, i32* %3, align 4
  %80 = add nsw i32 %79, 1
  %81 = sext i32 %80 to i64
  %82 = getelementptr inbounds [20 x i32], [20 x i32]* %6, i64 0, i64 %81
  %83 = load i32, i32* %82, align 4
  %84 = icmp slt i32 %78, %83
  br i1 %84, label %85, label %94

85:                                               ; preds = %77
  %86 = load i32, i32* %2, align 4
  %87 = sext i32 %86 to i64
  %88 = getelementptr inbounds [101 x i8], [101 x i8]* %7, i64 0, i64 %87
  %89 = load i8, i8* %88, align 1
  %90 = call dereferenceable(272) %"class.std::basic_ostream"* @_ZStlsISt11char_traitsIcEERSt13basic_ostreamIcT_ES5_c(%"class.std::basic_ostream"* dereferenceable(272) @_ZSt4cout, i8 signext %89)
  br label %91

91:                                               ; preds = %85
  %92 = load i32, i32* %2, align 4
  %93 = add nsw i32 %92, 1
  store i32 %93, i32* %2, align 4
  br label %77

94:                                               ; preds = %77
  br label %95

95:                                               ; preds = %94
  %96 = load i32, i32* %3, align 4
  %97 = add nsw i32 %96, -1
  store i32 %97, i32* %3, align 4
  br label %67

98:                                               ; preds = %67
  %99 = call dereferenceable(272) %"class.std::basic_ostream"* @_ZStlsISt11char_traitsIcEERSt13basic_ostreamIcT_ES5_PKc(%"class.std::basic_ostream"* dereferenceable(272) @_ZSt4cout, i8* getelementptr inbounds ([2 x i8], [2 x i8]* @.str, i64 0, i64 0))
  store i32 0, i32* %2, align 4
  br label %100

100:                                              ; preds = %111, %98
  %101 = load i32, i32* %2, align 4
  %102 = getelementptr inbounds [20 x i32], [20 x i32]* %6, i64 0, i64 0
  %103 = load i32, i32* %102, align 16
  %104 = icmp slt i32 %101, %103
  br i1 %104, label %105, label %114

105:                                              ; preds = %100
  %106 = load i32, i32* %2, align 4
  %107 = sext i32 %106 to i64
  %108 = getelementptr inbounds [101 x i8], [101 x i8]* %7, i64 0, i64 %107
  %109 = load i8, i8* %108, align 1
  %110 = call dereferenceable(272) %"class.std::basic_ostream"* @_ZStlsISt11char_traitsIcEERSt13basic_ostreamIcT_ES5_c(%"class.std::basic_ostream"* dereferenceable(272) @_ZSt4cout, i8 signext %109)
  br label %111

111:                                              ; preds = %105
  %112 = load i32, i32* %2, align 4
  %113 = add nsw i32 %112, 1
  store i32 %113, i32* %2, align 4
  br label %100

114:                                              ; preds = %100
  br label %115

115:                                              ; preds = %114, %39
  %116 = load i32, i32* %4, align 4
  %117 = icmp eq i32 %116, 0
  br i1 %117, label %118, label %121

118:                                              ; preds = %115
  %119 = getelementptr inbounds [101 x i8], [101 x i8]* %7, i64 0, i64 0
  %120 = call dereferenceable(272) %"class.std::basic_ostream"* @_ZStlsISt11char_traitsIcEERSt13basic_ostreamIcT_ES5_PKc(%"class.std::basic_ostream"* dereferenceable(272) @_ZSt4cout, i8* %119)
  br label %121

121:                                              ; preds = %118, %115
  ret i32 0
}

declare dso_local dereferenceable(280) %"class.std::basic_istream"* @_ZNSi3getEPclc(%"class.std::basic_istream"*, i8*, i64, i8 signext) #1

declare dso_local dereferenceable(272) %"class.std::basic_ostream"* @_ZStlsISt11char_traitsIcEERSt13basic_ostreamIcT_ES5_c(%"class.std::basic_ostream"* dereferenceable(272), i8 signext) #1

declare dso_local dereferenceable(272) %"class.std::basic_ostream"* @_ZStlsISt11char_traitsIcEERSt13basic_ostreamIcT_ES5_PKc(%"class.std::basic_ostream"* dereferenceable(272), i8*) #1

; Function Attrs: noinline uwtable
define internal void @_GLOBAL__sub_I_312.cpp() #0 section ".text.startup" {
  call void @__cxx_global_var_init()
  ret void
}


!llvm.module.flags = !{!0}
!llvm.ident = !{!1}

!0 = !{i32 1, !"wchar_size", i32 4}
!1 = !{!"clang version 10.0.0-4ubuntu1 "}
